; Function Attrs: nounwind uwtable
define dso_local range(i32 0, 2) i32 @repo_find_commit_pos_in_graph(ptr noundef %0, ptr noundef %1, ptr noundef writeonly captures(none) %2) local_unnamed_addr #0 {
  %4 = alloca i32, align 4
  %5 = tail call fastcc i32 @prepare_commit_graph(ptr noundef %0)
  %.not = icmp eq i32 %5, 0
  br i1 %.not, label %find_commit_pos_in_graph.exit, label %6

6:                                                ; preds = %3
  %7 = getelementptr inbounds nuw i8, ptr %0, i64 16
  %8 = load ptr, ptr %7, align 8, !tbaa !9
  %9 = getelementptr inbounds nuw i8, ptr %8, i64 96
  %10 = load ptr, ptr %9, align 8, !tbaa !123
  %11 = getelementptr i8, ptr %1, i64 64
  %.val.i.i = load i32, ptr %11, align 8, !tbaa !49
  %12 = udiv i32 %.val.i.i, 32766
  %13 = urem i32 %.val.i.i, 32766
  %14 = load i32, ptr @commit_graph_data_slab.2, align 8, !tbaa !55
  %.not.i.i.i.i = icmp ugt i32 %14, %12
  br i1 %.not.i.i.i.i, label %._crit_edge4.i.i.i.i, label %commit_graph_position.exit.thread.i

._crit_edge4.i.i.i.i:                             ; preds = %6
  %.pre.i.i.i.i = load ptr, ptr @commit_graph_data_slab.3, align 8, !tbaa !58
  %15 = zext nneg i32 %12 to i64
  %16 = getelementptr inbounds nuw ptr, ptr %.pre.i.i.i.i, i64 %15
  %17 = load ptr, ptr %16, align 8, !tbaa !59
  %.not35.i.i.i.i = icmp eq ptr %17, null
  br i1 %.not35.i.i.i.i, label %commit_graph_position.exit.thread.i, label %commit_graph_position.exit.i

commit_graph_position.exit.i:                     ; preds = %._crit_edge4.i.i.i.i
  %18 = zext nneg i32 %13 to i64
  %19 = getelementptr inbounds nuw %struct.commit_graph_data, ptr %17, i64 %18
  %20 = load i32, ptr %19, align 8, !tbaa !61
  %.not.i = icmp eq i32 %20, -1
  br i1 %.not.i, label %commit_graph_position.exit.thread.i, label %21

21:                                               ; preds = %commit_graph_position.exit.i
  store i32 %20, ptr %2, align 4, !tbaa !47
  br label %find_commit_pos_in_graph.exit

commit_graph_position.exit.thread.i:              ; preds = %commit_graph_position.exit.i, %._crit_edge4.i.i.i.i, %6
  %22 = getelementptr inbounds nuw i8, ptr %1, i64 4
  call void @llvm.lifetime.start.p0(i64 4, ptr nonnull %4) #24
  %.not12.i.i = icmp eq ptr %10, null
  br i1 %.not12.i.i, label %search_commit_pos_in_graph.exit.i, label %.lr.ph.i.i

.lr.ph.i.i:                                       ; preds = %commit_graph_position.exit.thread.i, %31
  %.013.i.i = phi ptr [ %33, %31 ], [ %10, %commit_graph_position.exit.thread.i ]
  %23 = getelementptr inbounds nuw i8, ptr %.013.i.i, i64 96
  %24 = load ptr, ptr %23, align 8, !tbaa !95
  %25 = getelementptr inbounds nuw i8, ptr %.013.i.i, i64 104
  %26 = load ptr, ptr %25, align 8, !tbaa !99
  %27 = getelementptr inbounds nuw i8, ptr %.013.i.i, i64 16
  %28 = load i8, ptr %27, align 8, !tbaa !81
  %29 = zext i8 %28 to i64
  %30 = call i32 @bsearch_hash(ptr noundef nonnull %22, ptr noundef %24, ptr noundef %26, i64 noundef %29, ptr noundef nonnull %4) #24
  %.not9.i.i = icmp eq i32 %30, 0
  br i1 %.not9.i.i, label %31, label %.critedge.i.i

31:                                               ; preds = %.lr.ph.i.i
  %32 = getelementptr inbounds nuw i8, ptr %.013.i.i, i64 88
  %33 = load ptr, ptr %32, align 8, !tbaa !114
  %.not.i.i = icmp eq ptr %33, null
  br i1 %.not.i.i, label %search_commit_pos_in_graph.exit.i, label %.lr.ph.i.i, !llvm.loop !131

.critedge.i.i:                                    ; preds = %.lr.ph.i.i
  %34 = load i32, ptr %4, align 4, !tbaa !47
  %35 = getelementptr inbounds nuw i8, ptr %.013.i.i, i64 80
  %36 = load i32, ptr %35, align 8, !tbaa !116
  %37 = add i32 %36, %34
  store i32 %37, ptr %2, align 4, !tbaa !47
  br label %search_commit_pos_in_graph.exit.i

search_commit_pos_in_graph.exit.i:                ; preds = %31, %.critedge.i.i, %commit_graph_position.exit.thread.i
  %.08.i.i = phi i32 [ 1, %.critedge.i.i ], [ 0, %commit_graph_position.exit.thread.i ], [ 0, %31 ]
  call void @llvm.lifetime.end.p0(i64 4, ptr nonnull %4) #24
  br label %find_commit_pos_in_graph.exit

find_commit_pos_in_graph.exit:                    ; preds = %search_commit_pos_in_graph.exit.i, %21, %3
  %.0 = phi i32 [ 0, %3 ], [ 1, %21 ], [ %.08.i.i, %search_commit_pos_in_graph.exit.i ]
  ret i32 %.0
}